cblocks.log.log
TrainingLog
p1
(tRp2
I0
(dp3
S'valid_sequence_log_likelihood_best_so_far'
p4
I01
sS'valid_weights_penalty_per_recording'
p5
cnumpy.core.multiarray
_reconstruct
p6
(cnumpy
ndarray
p7
(I0
tS'b'
tRp8
(I1
(tcnumpy
dtype
p9
(S'f8'
I0
I1
tRp10
(I3
S'<'
NNNI-1
I-1
I0
tbI00
S'\xf6\xf5\xf5\xf5\xa0\xe7&@'
tbsS'valid_per'
p11
I1
sS'time_initialization'
p12
F1059.77894115448
sS'valid_weights_entropy_per_label'
p13
g6
(g7
(I0
tS'b'
tRp14
(I1
(tg9
(S'f4'
I0
I1
tRp15
(I3
S'<'
NNNI-1
I-1
I0
tbI00
S'\x85\xf7T\xc0'
tbsS'valid_per_best_so_far'
p16
I01
sS'valid_sequence_log_likelihood'
p17
g6
(g7
(I0
tS'b'
tRp18
(I1
(tg10
I00
S'\xba\xb9\xb99\x9b\\\x7f@'
tbss(dp19
S'status'
p20
(dp21
S'iterations_done'
p22
I0
sS'resumed_from'
p23
NsS'epoch_interrupt_received'
p24
I00
sS'received_first_batch'
p25
I00
sS'_epoch_ends'
p26
(lp27
sS'epochs_done'
p28
I0
sS'_config'
p29
S"{'training': {'gradient_threshold': 100.0, 'scale': 0.1, 'rules': ['momentum', 'adadelta'], 'epsilon': 1e-08, 'decay_rate': 0.95, 'num_epochs': 1, 'num_batches': 100000, 'momentum': 0.0}, 'parent': '$LVSR/exp/wsj/configs/wsj_paper6.yaml', 'initialization': {'/recognizer': {'initial_states_init': IsotropicGaussian(_mean=0,_std=0.01), 'biases_init': Constant(_constant=0.0), 'weights_init': IsotropicGaussian(_mean=0,_std=0.1), 'rec_weights_init': IsotropicGaussian(_mean=0,_std=0.1)}}, 'regularization': {'norm_penalty': 10.0, 'dropout': False, 'max_norm': 1.0}, 'net': {'enc_transition': <class 'blocks.bricks.recurrent.GatedRecurrent'>, 'conv_n': 100, 'bottom_activation': <blocks.bricks.Rectifier object at 0x7f2f1c42b490: name=rectifier>, 'prior': {'after': 100, 'initial_begin': 0, 'min_speed': 1.2, 'max_speed': 2.2, 'initial_end': 40, 'type': 'expanding', 'before': 100}, 'dims_bottom': [], 'lm': {}, 'use_states_for_readout': True, 'dims_bidir': [320, 320, 320, 320], 'subsample': [1, 1, 2, 2], 'post_merge_dims': [320], 'dec_transition': <class 'blocks.bricks.recurrent.GatedRecurrent'>, 'post_merge_activation': <blocks.bricks.Rectifier object at 0x7f2f1c42b4d0: name=rectifier>, 'dim_dec': 320, 'attention_type': 'content_and_conv'}, 'data': {'preprocess_text': False, 'prepend_eos': False, 'batch_size': 10, 'dataset': 'WSJ', 'add_eos': True, 'labels_source': 'characters', 'recordings_source': 'fbank_dd', 'preprocess_features': '', 'normalization': ''}}"
p30
sS'epoch_started'
p31
I01
sS'best_valid_per'
p32
I1
sS'batch_interrupt_received'
p33
I00
sS'training_started'
p34
I01
sS'best_valid_sequence_log_likelihood'
p35
g18
ssS'uuid'
p36
ccopy_reg
_reconstructor
p37
(cuuid
UUID
p38
c__builtin__
object
p39
NtRp40
(dp41
S'int'
p42
L276464602711103774369055685118031271795L
sbsb.